(dp1
S'output'
p2
S"<type 'exceptions.SyntaxError'> invalid syntax (controllers/default.py, line 62)"
p3
sS'layer'
p4
S'C:\\Users\\Brad Cardello\\Desktop\\Computer Science\\CMPS-183\\web2py-class\\applications\\WebUcscTutor\\controllers/default.py'
p5
sS'code'
p6
S'# -*- coding: utf-8 -*-\n# this file is released under public domain and you can use without limitations\n\nimport json\nimport httplib\nimport re\nimport urllib\n\nappId = "sm3IJPOksqi4vIIN99wmppWnGWFZ0lvsVLNQ9VuO"\napiKey = "4udDwLuCkvJLR09ypSp1xsgKKVwBDmncRSRBd24K"\n\n\ndef get_info(strng):\n    if strng == "get users":\n        connection = httplib.HTTPSConnection(\'api.parse.com\', 443)\n        connection.connect()\n        connection.request(\'GET\', \'/1/users\', \'\', {\n               "X-Parse-Application-Id": appId,\n               "X-Parse-REST-API-Key": apiKey\n        })\n        return json.loads(connection.getresponse().read())\n    elif strng == "get messages":\n        connection = httplib.HTTPSConnection(\'api.parse.com\', 443)\n        connection.connect()\n        connection.request(\'GET\', \'/1/classes/ParseMessage\', \'\', {\n               "X-Parse-Application-Id": appId,\n               "X-Parse-REST-API-Key": apiKey\n        })\n        # print json.loads(connection.getresponse().read())\n        return json.loads(connection.getresponse().read())\n\n\ndef index():\n    return dict()\n\n\ndef name_list():\n    users = get_info("get users")\n    session.users = users\n    return dict(users=users)\n\n\ndef editprof():\n    return dict()\n\n\ndef messaging():\n    users = get_info("get users")\n    session.users = users\n\n    return dict(users=users)\n\n\ndef message_user():\n    # replace non-alphanumeric characters from args with spaces\n    title = request.args(0)\n    tutor_name = re.sub(\'[^0-9a-zA-Z]+\', \' \', title)\n\n    users = get_info("get users")\n    session.users = users\n\n    curr_user_id = request.vars.0\n    tutor_id = request.args(2)\n    user_list = [curr_user_id, tutor_id]\n    print user_list\n    connection = httplib.HTTPSConnection(\'api.parse.com\', 443)\n    params = urllib.urlencode({"where": json.dumps({\n                    "senderId": {\n                        "$in": user_list\n                    },\n                    "recipientId": {\n                        "$in": user_list\n                    },\n                    "order": "createdAt"\n    })})\n    connection.connect()\n    connection.request(\'GET\', \'/1/classes/ParseMessage?%s\' % params, \'\', {\n               "X-Parse-Application-Id": appId,\n               "X-Parse-REST-API-Key": apiKey\n    })\n\n    messages = json.loads(connection.getresponse().read())\n    print messages\n    # session.messages = messages\n    return dict(tutor_name=tutor_name, users=users, messages=messages, tutor_id=tutor_id)\n\n\n\nresponse._vars=response._caller(message_user)\n'
p7
sS'snapshot'
p8
(dp9
S'exception'
p10
(dp11
S'__getslice__'
p12
S"<method-wrapper '__getslice__' of exceptions.SyntaxError object>"
p13
sS'text'
p14
S"'    curr_user_id = request.vars.0\\n'"
p15
sS'__str__'
p16
S"<method-wrapper '__str__' of exceptions.SyntaxError object>"
p17
sS'__reduce__'
p18
S'<built-in method __reduce__ of exceptions.SyntaxError object>'
p19
sS'__dict__'
p20
S'{}'
p21
sS'__sizeof__'
p22
S'<built-in method __sizeof__ of exceptions.SyntaxError object>'
p23
sS'__init__'
p24
S"<method-wrapper '__init__' of exceptions.SyntaxError object>"
p25
sS'__setattr__'
p26
S"<method-wrapper '__setattr__' of exceptions.SyntaxError object>"
p27
sS'__reduce_ex__'
p28
S'<built-in method __reduce_ex__ of exceptions.SyntaxError object>'
p29
sS'__new__'
p30
S'<built-in method __new__ of type object>'
p31
sS'__format__'
p32
S'<built-in method __format__ of exceptions.SyntaxError object>'
p33
sS'__class__'
p34
S"<type 'exceptions.SyntaxError'>"
p35
sS'filename'
p36
S"r'C:\\Users\\Brad Cardello\\Desktop\\Computer Science\\...\\applications\\WebUcscTutor\\controllers/default.py'"
p37
sS'lineno'
p38
S'62'
p39
sS'msg'
p40
S"'invalid syntax'"
p41
sS'__doc__'
p42
S"'Invalid syntax.'"
p43
sS'__getitem__'
p44
S"<method-wrapper '__getitem__' of exceptions.SyntaxError object>"
p45
sS'__setstate__'
p46
S'<built-in method __setstate__ of exceptions.SyntaxError object>'
p47
sS'__getattribute__'
p48
S"<method-wrapper '__getattribute__' of exceptions.SyntaxError object>"
p49
sS'print_file_and_line'
p50
S'None'
p51
sS'args'
p52
S"('invalid syntax', (r'C:\\Users\\Brad Cardello\\Desktop\\Computer Science\\...\\applications\\WebUcscTutor\\controllers/default.py', 62, 33, '    curr_user_id = request.vars.0\\n'))"
p53
sS'__subclasshook__'
p54
S'<built-in method __subclasshook__ of type object>'
p55
sS'offset'
p56
S'33'
p57
sS'__unicode__'
p58
S'<built-in method __unicode__ of exceptions.SyntaxError object>'
p59
sS'__delattr__'
p60
S"<method-wrapper '__delattr__' of exceptions.SyntaxError object>"
p61
sS'__repr__'
p62
S"<method-wrapper '__repr__' of exceptions.SyntaxError object>"
p63
sS'__hash__'
p64
S"<method-wrapper '__hash__' of exceptions.SyntaxError object>"
p65
ssS'evalue'
p66
S'invalid syntax (controllers/default.py, line 62)'
p67
sS'request'
p68
cgluon.html
XML_unpickle
p69
(S's\xd0v\x00\x00<div><table><tr><td style="font-weight:bold;vertical-align:top;">ajax</td><td style="vertical-align:top;">:</td><td><div>False</div></td></tr><tr><td style="font-weight:bold;vertical-align:top;">application</td><td style="vertical-align:top;">:</td><td><div>WebUcscTutor</div></td></tr><tr><td style="font-weight:bold;vertical-align:top;">args</td><td style="vertical-align:top;">:</td><td><div><table><tr><td><div>a_a</div></td></tr><tr><td><div>a</div></td></tr><tr><td><div>9gJOPHmZf5</div></td></tr></table></div></td></tr><tr><td style="font-weight:bold;vertical-align:top;">cid</td><td style="vertical-align:top;">:</td><td><div>None</div></td></tr><tr><td style="font-weight:bold;vertical-align:top;">client</td><td style="vertical-align:top;">:</td><td><div>127.0.0.1</div></td></tr><tr><td style="font-weight:bold;vertical-align:top;">controller</td><td style="vertical-align:top;">:</td><td><div>default</div></td></tr><tr><td style="font-weight:bold;vertical-align:top;">cookies</td><td style="vertical-align:top;">:</td><td><div><table><tr><td style="font-weight:bold;vertical-align:top;">pnctest</td><td style="vertical-align:top;">:</td><td><div>1<table><tr><td style="font-weight:bold;vertical-align:top;">comment</td><td style="vertical-align:top;">:</td><td><div></div></td></tr><tr><td style="font-weight:bold;vertical-align:top;">domain</td><td style="vertical-align:top;">:</td><td><div></div></td></tr><tr><td style="font-weight:bold;vertical-align:top;">expires</td><td style="vertical-align:top;">:</td><td><div></div></td></tr><tr><td style="font-weight:bold;vertical-align:top;">httponly</td><td style="vertical-align:top;">:</td><td><div></div></td></tr><tr><td style="font-weight:bold;vertical-align:top;">max-age</td><td style="vertical-align:top;">:</td><td><div></div></td></tr><tr><td style="font-weight:bold;vertical-align:top;">path</td><td style="vertical-align:top;">:</td><td><div></div></td></tr><tr><td style="font-weight:bold;vertical-align:top;">secure</td><td style="vertical-align:top;">:</td><td><div></div></td></tr><tr><td style="font-weight:bold;vertical-align:top;">version</td><td style="vertical-align:top;">:</td><td><div></div></td></tr></table></div></td></tr><tr><td style="font-weight:bold;vertical-align:top;">session_id_admin</td><td style="vertical-align:top;">:</td><td><div>127.0.0.1-99dc8dc8-dfac-4b71-9dfa-5259ba8a609b<table><tr><td style="font-weight:bold;vertical-align:top;">comment</td><td style="vertical-align:top;">:</td><td><div></div></td></tr><tr><td style="font-weight:bold;vertical-align:top;">domain</td><td style="vertical-align:top;">:</td><td><div></div></td></tr><tr><td style="font-weight:bold;vertical-align:top;">expires</td><td style="vertical-align:top;">:</td><td><div></div></td></tr><tr><td style="font-weight:bold;vertical-align:top;">httponly</td><td style="vertical-align:top;">:</td><td><div></div></td></tr><tr><td style="font-weight:bold;vertical-align:top;">max-age</td><td style="vertical-align:top;">:</td><td><div></div></td></tr><tr><td style="font-weight:bold;vertical-align:top;">path</td><td style="vertical-align:top;">:</td><td><div></div></td></tr><tr><td style="font-weight:bold;vertical-align:top;">secure</td><td style="vertical-align:top;">:</td><td><div></div></td></tr><tr><td style="font-weight:bold;vertical-align:top;">version</td><td style="vertical-align:top;">:</td><td><div></div></td></tr></table></div></td></tr><tr><td style="font-weight:bold;vertical-align:top;">session_id_clickabletablerows</td><td style="vertical-align:top;">:</td><td><div>127.0.0.1-ee80b359-bfe8-4365-bd66-dd4cf9971d5a<table><tr><td style="font-weight:bold;vertical-align:top;">comment</td><td style="vertical-align:top;">:</td><td><div></div></td></tr><tr><td style="font-weight:bold;vertical-align:top;">domain</td><td style="vertical-align:top;">:</td><td><div></div></td></tr><tr><td style="font-weight:bold;vertical-align:top;">expires</td><td style="vertical-align:top;">:</td><td><div></div></td></tr><tr><td style="font-weight:bold;vertical-align:top;">httponly</td><td style="vertical-align:top;">:</td><td><div></div></td></tr><tr><td style="font-weight:bold;vertical-align:top;">max-age</td><td style="vertical-align:top;">:</td><td><div></div></td></tr><tr><td style="font-weight:bold;vertical-align:top;">path</td><td style="vertical-align:top;">:</td><td><div></div></td></tr><tr><td style="font-weight:bold;vertical-align:top;">secure</td><td style="vertical-align:top;">:</td><td><div></div></td></tr><tr><td style="font-weight:bold;vertical-align:top;">version</td><td style="vertical-align:top;">:</td><td><div></div></td></tr></table></div></td></tr><tr><td style="font-weight:bold;vertical-align:top;">session_id_myapp</td><td style="vertical-align:top;">:</td><td><div>127.0.0.1-192cc616-9983-4854-8f32-10e2ef21dbf4<table><tr><td style="font-weight:bold;vertical-align:top;">comment</td><td style="vertical-align:top;">:</td><td><div></div></td></tr><tr><td style="font-weight:bold;vertical-align:top;">domain</td><td style="vertical-align:top;">:</td><td><div></div></td></tr><tr><td style="font-weight:bold;vertical-align:top;">expires</td><td style="vertical-align:top;">:</td><td><div></div></td></tr><tr><td style="font-weight:bold;vertical-align:top;">httponly</td><td style="vertical-align:top;">:</td><td><div></div></td></tr><tr><td style="font-weight:bold;vertical-align:top;">max-age</td><td style="vertical-align:top;">:</td><td><div></div></td></tr><tr><td style="font-weight:bold;vertical-align:top;">path</td><td style="vertical-align:top;">:</td><td><div></div></td></tr><tr><td style="font-weight:bold;vertical-align:top;">secure</td><td style="vertical-align:top;">:</td><td><div></div></td></tr><tr><td style="font-weight:bold;vertical-align:top;">version</td><td style="vertical-align:top;">:</td><td><div></div></td></tr></table></div></td></tr><tr><td style="font-weight:bold;vertical-align:top;">session_id_start</td><td style="vertical-align:top;">:</td><td><div>127.0.0.1-d5f7d4b8-3a10-4cd5-9889-8b65b8747a55<table><tr><td style="font-weight:bold;vertical-align:top;">comment</td><td style="vertical-align:top;">:</td><td><div></div></td></tr><tr><td style="font-weight:bold;vertical-align:top;">domain</td><td style="vertical-align:top;">:</td><td><div></div></td></tr><tr><td style="font-weight:bold;vertical-align:top;">expires</td><td style="vertical-align:top;">:</td><td><div></div></td></tr><tr><td style="font-weight:bold;vertical-align:top;">httponly</td><td style="vertical-align:top;">:</td><td><div></div></td></tr><tr><td style="font-weight:bold;vertical-align:top;">max-age</td><td style="vertical-align:top;">:</td><td><div></div></td></tr><tr><td style="font-weight:bold;vertical-align:top;">path</td><td style="vertical-align:top;">:</td><td><div></div></td></tr><tr><td style="font-weight:bold;vertical-align:top;">secure</td><td style="vertical-align:top;">:</td><td><div></div></td></tr><tr><td style="font-weight:bold;vertical-align:top;">version</td><td style="vertical-align:top;">:</td><td><div></div></td></tr></table></div></td></tr><tr><td style="font-weight:bold;vertical-align:top;">session_id_webucsctutor</td><td style="vertical-align:top;">:</td><td><div>127.0.0.1-81969716-1308-443e-9b6f-a74763cb421d<table><tr><td style="font-weight:bold;vertical-align:top;">comment</td><td style="vertical-align:top;">:</td><td><div></div></td></tr><tr><td style="font-weight:bold;vertical-align:top;">domain</td><td style="vertical-align:top;">:</td><td><div></div></td></tr><tr><td style="font-weight:bold;vertical-align:top;">expires</td><td style="vertical-align:top;">:</td><td><div></div></td></tr><tr><td style="font-weight:bold;vertical-align:top;">httponly</td><td style="vertical-align:top;">:</td><td><div></div></td></tr><tr><td style="font-weight:bold;vertical-align:top;">max-age</td><td style="vertical-align:top;">:</td><td><div></div></td></tr><tr><td style="font-weight:bold;vertical-align:top;">path</td><td style="vertical-align:top;">:</td><td><div></div></td></tr><tr><td style="font-weight:bold;vertical-align:top;">secure</td><td style="vertical-align:top;">:</td><td><div></div></td></tr><tr><td style="font-weight:bold;vertical-align:top;">version</td><td style="vertical-align:top;">:</td><td><div></div></td></tr></table></div></td></tr><tr><td style="font-weight:bold;vertical-align:top;">session_id_welcome</td><td style="vertical-align:top;">:</td><td><div>127.0.0.1-17beb803-0642-4b23-9539-c5ce041cb962<table><tr><td style="font-weight:bold;vertical-align:top;">comment</td><td style="vertical-align:top;">:</td><td><div></div></td></tr><tr><td style="font-weight:bold;vertical-align:top;">domain</td><td style="vertical-align:top;">:</td><td><div></div></td></tr><tr><td style="font-weight:bold;vertical-align:top;">expires</td><td style="vertical-align:top;">:</td><td><div></div></td></tr><tr><td style="font-weight:bold;vertical-align:top;">httponly</td><td style="vertical-align:top;">:</td><td><div></div></td></tr><tr><td style="font-weight:bold;vertical-align:top;">max-age</td><td style="vertical-align:top;">:</td><td><div></div></td></tr><tr><td style="font-weight:bold;vertical-align:top;">path</td><td style="vertical-align:top;">:</td><td><div></div></td></tr><tr><td style="font-weight:bold;vertical-align:top;">secure</td><td style="vertical-align:top;">:</td><td><div></div></td></tr><tr><td style="font-weight:bold;vertical-align:top;">version</td><td style="vertical-align:top;">:</td><td><div></div></td></tr></table></div></td></tr></table></div></td></tr><tr><td style="font-weight:bold;vertical-align:top;">env</td><td style="vertical-align:top;">:</td><td><div><table><tr><td style="font-weight:bold;vertical-align:top;">HTTP_ACCEPT</td><td style="vertical-align:top;">:</td><td><div>text/html,application/xhtml+xml,application/xml;q=0.9,image/webp,*/*;q=0.8</div></td></tr><tr><td style="font-weight:bold;vertical-align:top;">HTTP_ACCEPT_ENCODING</td><td style="vertical-align:top;">:</td><td><div>gzip, deflate, sdch</div></td></tr><tr><td style="font-weight:bold;vertical-align:top;">HTTP_ACCEPT_LANGUAGE</td><td style="vertical-align:top;">:</td><td><div>en-US,en;q=0.8</div></td></tr><tr><td style="font-weight:bold;vertical-align:top;">HTTP_CACHE_CONTROL</td><td style="vertical-align:top;">:</td><td><div>max-age=0</div></td></tr><tr><td style="font-weight:bold;vertical-align:top;">HTTP_CONNECTION</td><td style="vertical-align:top;">:</td><td><div>keep-alive</div></td></tr><tr><td style="font-weight:bold;vertical-align:top;">HTTP_COOKIE</td><td style="vertical-align:top;">:</td><td><div>session_id_start=127.0.0.1-d5f7d4b8-3a10-4cd5-9889-8b65b8747a55; session_id_clickabletablerows=127.0.0.1-ee80b359-bfe8-4365-bd66-dd4cf9971d5a; session_id_myapp=127.0.0.1-192cc616-9983-4854-8f32-10e2ef21dbf4; pnctest=1; session_id_welcome=127.0.0.1-17beb803-0642-4b23-9539-c5ce041cb962; session_id_admin=127.0.0.1-99dc8dc8-dfac-4b71-9dfa-5259ba8a609b; session_id_webucsctutor=127.0.0.1-81969716-1308-443e-9b6f-a74763cb421d</div></td></tr><tr><td style="font-weight:bold;vertical-align:top;">HTTP_HOST</td><td style="vertical-align:top;">:</td><td><div>127.0.0.1:8216</div></td></tr><tr><td style="font-weight:bold;vertical-align:top;">HTTP_REFERER</td><td style="vertical-align:top;">:</td><td><div>http://127.0.0.1:8216/WebUcscTutor/default/messaging</div></td></tr><tr><td style="font-weight:bold;vertical-align:top;">HTTP_UPGRADE_INSECURE_REQUESTS</td><td style="vertical-align:top;">:</td><td><div>1</div></td></tr><tr><td style="font-weight:bold;vertical-align:top;">HTTP_USER_AGENT</td><td style="vertical-align:top;">:</td><td><div>Mozilla/5.0 (Windows NT 10.0; WOW64) AppleWebKit/537.36 (KHTML, like Gecko) Chrome/46.0.2490.86 Safari/537.36</div></td></tr><tr><td style="font-weight:bold;vertical-align:top;">PATH_INFO</td><td style="vertical-align:top;">:</td><td><div>/WebUcscTutor/default/message_user/a a/a/9gJOPHmZf5</div></td></tr><tr><td style="font-weight:bold;vertical-align:top;">QUERY_STRING</td><td style="vertical-align:top;">:</td><td><div></div></td></tr><tr><td style="font-weight:bold;vertical-align:top;">REMOTE_ADDR</td><td style="vertical-align:top;">:</td><td><div>127.0.0.1</div></td></tr><tr><td style="font-weight:bold;vertical-align:top;">REMOTE_PORT</td><td style="vertical-align:top;">:</td><td><div>56848</div></td></tr><tr><td style="font-weight:bold;vertical-align:top;">REQUEST_METHOD</td><td style="vertical-align:top;">:</td><td><div>GET</div></td></tr><tr><td style="font-weight:bold;vertical-align:top;">SCRIPT_NAME</td><td style="vertical-align:top;">:</td><td><div></div></td></tr><tr><td style="font-weight:bold;vertical-align:top;">SERVER_NAME</td><td style="vertical-align:top;">:</td><td><div>BradCardello-HP</div></td></tr><tr><td style="font-weight:bold;vertical-align:top;">SERVER_PORT</td><td style="vertical-align:top;">:</td><td><div>8216</div></td></tr><tr><td style="font-weight:bold;vertical-align:top;">SERVER_PROTOCOL</td><td style="vertical-align:top;">:</td><td><div>HTTP/1.1</div></td></tr><tr><td style="font-weight:bold;vertical-align:top;">SERVER_SOFTWARE</td><td style="vertical-align:top;">:</td><td><div>Rocket 1.2.6</div></td></tr><tr><td style="font-weight:bold;vertical-align:top;">app_folders</td><td style="vertical-align:top;">:</td><td><div>set([&#x27;C:\\\\Users\\\\Brad Cardello\\\\Desktop\\\\Computer Science\\\\CMPS-183\\\\web2py-class\\\\applications\\\\admin\\\\&#x27;, &#x27;C:\\\\Users\\\\Brad Cardello\\\\Desktop\\\\Computer Science\\\\CMPS-183\\\\web2py-class\\\\applications\\\\welcome\\\\&#x27;, &#x27;C:\\\\Users\\\\Brad Cardello\\\\Desktop\\\\Computer Science\\\\CMPS-183\\\\web2py-class\\\\applications\\\\WebUcscTutor\\\\&#x27;])</div></td></tr><tr><td style="font-weight:bold;vertical-align:top;">applications_parent</td><td style="vertical-align:top;">:</td><td><div>C:\\Users\\Brad Cardello\\Desktop\\Computer Science\\CMPS-183\\web2py-class</div></td></tr><tr><td style="font-weight:bold;vertical-align:top;">cmd_args</td><td style="vertical-align:top;">:</td><td><div><table></table></div></td></tr><tr><td style="font-weight:bold;vertical-align:top;">cmd_options</td><td style="vertical-align:top;">:</td><td><div>&lt;Values at 0x35dbd78: {&#x27;verbose&#x27;: False, &#x27;ip&#x27;: &#x27;127.0.0.1&#x27;, &#x27;debuglevel&#x27;: 30, &#x27;with_scheduler&#x27;: False, &#x27;ips&#x27;: [&#x27;fe80::f949:4d03:924e:beff%8&#x27;, &#x27;169.254.190.255&#x27;, &#x27;10.0.0.12&#x27;], &#x27;shutdown_timeout&#x27;: 5, &#x27;taskbar&#x27;: False, &#x27;with_coverage&#x27;: False, &#x27;scheduler_groups&#x27;: None, &#x27;port&#x27;: 8216, &#x27;maxthreads&#x27;: None, &#x27;softcron&#x27;: False, &#x27;server_name&#x27;: &#x27;BradCardello-HP&#x27;, &#x27;bpython&#x27;: False, &#x27;nogui&#x27;: False, &#x27;pid_filename&#x27;: &#x27;httpserver.pid&#x27;, &#x27;print_errors&#x27;: True, &#x27;extcron&#x27;: False, &#x27;runcron&#x27;: False, &#x27;run_system_tests&#x27;: False, &#x27;test&#x27;: None, &#x27;folder&#x27;: &#x27;C:\\\\Users\\\\Brad Cardello\\\\Desktop\\\\Computer Science\\\\CMPS-183\\\\web2py-class&#x27;, &#x27;config&#x27;: &#x27;&#x27;, &#x27;minthreads&#x27;: None, &#x27;shell&#x27;: None, &#x27;run&#x27;: &#x27;&#x27;, &#x27;log_filename&#x27;: &#x27;httpserver.log&#x27;, &#x27;profiler_dir&#x27;: None, &#x27;args&#x27;: [&#x27;&#x27;], &#x27;socket_timeout&#x27;: 5, &#x27;ssl_ca_certificate&#x27;: None, &#x27;scheduler&#x27;: None, &#x27;interfaces&#x27;: None, &#x27;ssl_private_key&#x27;: &#x27;&#x27;, &#x27;gae&#x27;: None, &#x27;password&#x27;: &#x27;imsick&#x27;, &#x27;request_queue_size&#x27;: 5, &#x27;ssl_certificate&#x27;: &#x27;&#x27;, &#x27;cronjob&#x27;: False, &#x27;numthreads&#x27;: None, &#x27;quiet&#x27;: False, &#x27;import_models&#x27;: False, &#x27;timeout&#x27;: 10, &#x27;plain&#x27;: False, &#x27;nobanner&#x27;: False}&gt;</div></td></tr><tr><td style="font-weight:bold;vertical-align:top;">db_sessions</td><td style="vertical-align:top;">:</td><td><div>set([])</div></td></tr><tr><td style="font-weight:bold;vertical-align:top;">debugging</td><td style="vertical-align:top;">:</td><td><div>False</div></td></tr><tr><td style="font-weight:bold;vertical-align:top;">gluon_parent</td><td style="vertical-align:top;">:</td><td><div>C:\\Users\\Brad Cardello\\Desktop\\Computer Science\\CMPS-183\\web2py-class</div></td></tr><tr><td style="font-weight:bold;vertical-align:top;">http_accept</td><td style="vertical-align:top;">:</td><td><div>text/html,application/xhtml+xml,application/xml;q=0.9,image/webp,*/*;q=0.8</div></td></tr><tr><td style="font-weight:bold;vertical-align:top;">http_accept_encoding</td><td style="vertical-align:top;">:</td><td><div>gzip, deflate, sdch</div></td></tr><tr><td style="font-weight:bold;vertical-align:top;">http_accept_language</td><td style="vertical-align:top;">:</td><td><div>en-US,en;q=0.8</div></td></tr><tr><td style="font-weight:bold;vertical-align:top;">http_cache_control</td><td style="vertical-align:top;">:</td><td><div>max-age=0</div></td></tr><tr><td style="font-weight:bold;vertical-align:top;">http_connection</td><td style="vertical-align:top;">:</td><td><div>keep-alive</div></td></tr><tr><td style="font-weight:bold;vertical-align:top;">http_cookie</td><td style="vertical-align:top;">:</td><td><div>session_id_start=127.0.0.1-d5f7d4b8-3a10-4cd5-9889-8b65b8747a55; session_id_clickabletablerows=127.0.0.1-ee80b359-bfe8-4365-bd66-dd4cf9971d5a; session_id_myapp=127.0.0.1-192cc616-9983-4854-8f32-10e2ef21dbf4; pnctest=1; session_id_welcome=127.0.0.1-17beb803-0642-4b23-9539-c5ce041cb962; session_id_admin=127.0.0.1-99dc8dc8-dfac-4b71-9dfa-5259ba8a609b; session_id_webucsctutor=127.0.0.1-81969716-1308-443e-9b6f-a74763cb421d</div></td></tr><tr><td style="font-weight:bold;vertical-align:top;">http_host</td><td style="vertical-align:top;">:</td><td><div>127.0.0.1:8216</div></td></tr><tr><td style="font-weight:bold;vertical-align:top;">http_referer</td><td style="vertical-align:top;">:</td><td><div>http://127.0.0.1:8216/WebUcscTutor/default/messaging</div></td></tr><tr><td style="font-weight:bold;vertical-align:top;">http_upgrade_insecure_requests</td><td style="vertical-align:top;">:</td><td><div>1</div></td></tr><tr><td style="font-weight:bold;vertical-align:top;">http_user_agent</td><td style="vertical-align:top;">:</td><td><div>Mozilla/5.0 (Windows NT 10.0; WOW64) AppleWebKit/537.36 (KHTML, like Gecko) Chrome/46.0.2490.86 Safari/537.36</div></td></tr><tr><td style="font-weight:bold;vertical-align:top;">is_jython</td><td style="vertical-align:top;">:</td><td><div>False</div></td></tr><tr><td style="font-weight:bold;vertical-align:top;">is_pypy</td><td style="vertical-align:top;">:</td><td><div>False</div></td></tr><tr><td style="font-weight:bold;vertical-align:top;">is_source</td><td style="vertical-align:top;">:</td><td><div>True</div></td></tr><tr><td style="font-weight:bold;vertical-align:top;">local_hosts</td><td style="vertical-align:top;">:</td><td><div><table><tr><td><div>BradCardello-HP</div></td></tr><tr><td><div>10.0.0.12</div></td></tr><tr><td><div>::ffff:127.0.0.1</div></td></tr><tr><td><div>::1</div></td></tr><tr><td><div>fe80::f949:4d03:924e:beff%8</div></td></tr><tr><td><div>169.254.190.255</div></td></tr><tr><td><div>127.0.0.1</div></td></tr></table></div></td></tr><tr><td style="font-weight:bold;vertical-align:top;">path_info</td><td style="vertical-align:top;">:</td><td><div>/WebUcscTutor/default/message_user/a a/a/9gJOPHmZf5</div></td></tr><tr><td style="font-weight:bold;vertical-align:top;">query_string</td><td style="vertical-align:top;">:</td><td><div></div></td></tr><tr><td style="font-weight:bold;vertical-align:top;">remote_addr</td><td style="vertical-align:top;">:</td><td><div>127.0.0.1</div></td></tr><tr><td style="font-weight:bold;vertical-align:top;">remote_port</td><td style="vertical-align:top;">:</td><td><div>56848</div></td></tr><tr><td style="font-weight:bold;vertical-align:top;">request_method</td><td style="vertical-align:top;">:</td><td><div>GET</div></td></tr><tr><td style="font-weight:bold;vertical-align:top;">request_uri</td><td style="vertical-align:top;">:</td><td><div>/WebUcscTutor/default/message_user/a a/a/9gJOPHmZf5</div></td></tr><tr><td style="font-weight:bold;vertical-align:top;">script_name</td><td style="vertical-align:top;">:</td><td><div></div></td></tr><tr><td style="font-weight:bold;vertical-align:top;">server_name</td><td style="vertical-align:top;">:</td><td><div>BradCardello-HP</div></td></tr><tr><td style="font-weight:bold;vertical-align:top;">server_port</td><td style="vertical-align:top;">:</td><td><div>8216</div></td></tr><tr><td style="font-weight:bold;vertical-align:top;">server_protocol</td><td style="vertical-align:top;">:</td><td><div>HTTP/1.1</div></td></tr><tr><td style="font-weight:bold;vertical-align:top;">server_software</td><td style="vertical-align:top;">:</td><td><div>Rocket 1.2.6</div></td></tr><tr><td style="font-weight:bold;vertical-align:top;">web2py_path</td><td style="vertical-align:top;">:</td><td><div>C:\\Users\\Brad Cardello\\Desktop\\Computer Science\\CMPS-183\\web2py-class</div></td></tr><tr><td style="font-weight:bold;vertical-align:top;">web2py_version</td><td style="vertical-align:top;">:</td><td><div>2.12.3-stable+timestamp.2015.08.18.19.14.07</div></td></tr><tr><td style="font-weight:bold;vertical-align:top;">wsgi.errors</td><td style="vertical-align:top;">:</td><td><div>&lt;open file &#x27;&lt;stderr&gt;&#x27;, mode &#x27;w&#x27; at 0x023AD0D0&gt;</div></td></tr><tr><td style="font-weight:bold;vertical-align:top;">wsgi.file_wrapper</td><td style="vertical-align:top;">:</td><td><div>&lt;class wsgiref.util.FileWrapper at 0x03526848&gt;</div></td></tr><tr><td style="font-weight:bold;vertical-align:top;">wsgi.input</td><td style="vertical-align:top;">:</td><td><div>&lt;socket._fileobject object at 0x03A58A70&gt;</div></td></tr><tr><td style="font-weight:bold;vertical-align:top;">wsgi.multiprocess</td><td style="vertical-align:top;">:</td><td><div>False</div></td></tr><tr><td style="font-weight:bold;vertical-align:top;">wsgi.multithread</td><td style="vertical-align:top;">:</td><td><div>True</div></td></tr><tr><td style="font-weight:bold;vertical-align:top;">wsgi.run_once</td><td style="vertical-align:top;">:</td><td><div>False</div></td></tr><tr><td style="font-weight:bold;vertical-align:top;">wsgi.url_scheme</td><td style="vertical-align:top;">:</td><td><div>http</div></td></tr><tr><td style="font-weight:bold;vertical-align:top;">wsgi.version</td><td style="vertical-align:top;">:</td><td><div><table><tr><td><div>1</div></td></tr><tr><td><div>0</div></td></tr></table></div></td></tr><tr><td style="font-weight:bold;vertical-align:top;">wsgi_errors</td><td style="vertical-align:top;">:</td><td><div>&lt;open file &#x27;&lt;stderr&gt;&#x27;, mode &#x27;w&#x27; at 0x023AD0D0&gt;</div></td></tr><tr><td style="font-weight:bold;vertical-align:top;">wsgi_file_wrapper</td><td style="vertical-align:top;">:</td><td><div>&lt;class wsgiref.util.FileWrapper at 0x03526848&gt;</div></td></tr><tr><td style="font-weight:bold;vertical-align:top;">wsgi_input</td><td style="vertical-align:top;">:</td><td><div>&lt;socket._fileobject object at 0x03A58A70&gt;</div></td></tr><tr><td style="font-weight:bold;vertical-align:top;">wsgi_multiprocess</td><td style="vertical-align:top;">:</td><td><div>False</div></td></tr><tr><td style="font-weight:bold;vertical-align:top;">wsgi_multithread</td><td style="vertical-align:top;">:</td><td><div>True</div></td></tr><tr><td style="font-weight:bold;vertical-align:top;">wsgi_run_once</td><td style="vertical-align:top;">:</td><td><div>False</div></td></tr><tr><td style="font-weight:bold;vertical-align:top;">wsgi_url_scheme</td><td style="vertical-align:top;">:</td><td><div>http</div></td></tr><tr><td style="font-weight:bold;vertical-align:top;">wsgi_version</td><td style="vertical-align:top;">:</td><td><div><table><tr><td><div>1</div></td></tr><tr><td><div>0</div></td></tr></table></div></td></tr></table></div></td></tr><tr><td style="font-weight:bold;vertical-align:top;">extension</td><td style="vertical-align:top;">:</td><td><div>html</div></td></tr><tr><td style="font-weight:bold;vertical-align:top;">folder</td><td style="vertical-align:top;">:</td><td><div>C:\\Users\\Brad Cardello\\Desktop\\Computer Science\\CMPS-183\\web2py-class\\applications\\WebUcscTutor\\</div></td></tr><tr><td style="font-weight:bold;vertical-align:top;">function</td><td style="vertical-align:top;">:</td><td><div>message_user</div></td></tr><tr><td style="font-weight:bold;vertical-align:top;">global_settings</td><td style="vertical-align:top;">:</td><td><div><table><tr><td style="font-weight:bold;vertical-align:top;">app_folders</td><td style="vertical-align:top;">:</td><td><div>set([&#x27;C:\\\\Users\\\\Brad Cardello\\\\Desktop\\\\Computer Science\\\\CMPS-183\\\\web2py-class\\\\applications\\\\admin\\\\&#x27;, &#x27;C:\\\\Users\\\\Brad Cardello\\\\Desktop\\\\Computer Science\\\\CMPS-183\\\\web2py-class\\\\applications\\\\welcome\\\\&#x27;, &#x27;C:\\\\Users\\\\Brad Cardello\\\\Desktop\\\\Computer Science\\\\CMPS-183\\\\web2py-class\\\\applications\\\\WebUcscTutor\\\\&#x27;])</div></td></tr><tr><td style="font-weight:bold;vertical-align:top;">applications_parent</td><td style="vertical-align:top;">:</td><td><div>C:\\Users\\Brad Cardello\\Desktop\\Computer Science\\CMPS-183\\web2py-class</div></td></tr><tr><td style="font-weight:bold;vertical-align:top;">cmd_args</td><td style="vertical-align:top;">:</td><td><div><table></table></div></td></tr><tr><td style="font-weight:bold;vertical-align:top;">cmd_options</td><td style="vertical-align:top;">:</td><td><div>&lt;Values at 0x35dbd78: {&#x27;verbose&#x27;: False, &#x27;ip&#x27;: &#x27;127.0.0.1&#x27;, &#x27;debuglevel&#x27;: 30, &#x27;with_scheduler&#x27;: False, &#x27;ips&#x27;: [&#x27;fe80::f949:4d03:924e:beff%8&#x27;, &#x27;169.254.190.255&#x27;, &#x27;10.0.0.12&#x27;], &#x27;shutdown_timeout&#x27;: 5, &#x27;taskbar&#x27;: False, &#x27;with_coverage&#x27;: False, &#x27;scheduler_groups&#x27;: None, &#x27;port&#x27;: 8216, &#x27;maxthreads&#x27;: None, &#x27;softcron&#x27;: False, &#x27;server_name&#x27;: &#x27;BradCardello-HP&#x27;, &#x27;bpython&#x27;: False, &#x27;nogui&#x27;: False, &#x27;pid_filename&#x27;: &#x27;httpserver.pid&#x27;, &#x27;print_errors&#x27;: True, &#x27;extcron&#x27;: False, &#x27;runcron&#x27;: False, &#x27;run_system_tests&#x27;: False, &#x27;test&#x27;: None, &#x27;folder&#x27;: &#x27;C:\\\\Users\\\\Brad Cardello\\\\Desktop\\\\Computer Science\\\\CMPS-183\\\\web2py-class&#x27;, &#x27;config&#x27;: &#x27;&#x27;, &#x27;minthreads&#x27;: None, &#x27;shell&#x27;: None, &#x27;run&#x27;: &#x27;&#x27;, &#x27;log_filename&#x27;: &#x27;httpserver.log&#x27;, &#x27;profiler_dir&#x27;: None, &#x27;args&#x27;: [&#x27;&#x27;], &#x27;socket_timeout&#x27;: 5, &#x27;ssl_ca_certificate&#x27;: None, &#x27;scheduler&#x27;: None, &#x27;interfaces&#x27;: None, &#x27;ssl_private_key&#x27;: &#x27;&#x27;, &#x27;gae&#x27;: None, &#x27;password&#x27;: &#x27;imsick&#x27;, &#x27;request_queue_size&#x27;: 5, &#x27;ssl_certificate&#x27;: &#x27;&#x27;, &#x27;cronjob&#x27;: False, &#x27;numthreads&#x27;: None, &#x27;quiet&#x27;: False, &#x27;import_models&#x27;: False, &#x27;timeout&#x27;: 10, &#x27;plain&#x27;: False, &#x27;nobanner&#x27;: False}&gt;</div></td></tr><tr><td style="font-weight:bold;vertical-align:top;">db_sessions</td><td style="vertical-align:top;">:</td><td><div>set([])</div></td></tr><tr><td style="font-weight:bold;vertical-align:top;">debugging</td><td style="vertical-align:top;">:</td><td><div>False</div></td></tr><tr><td style="font-weight:bold;vertical-align:top;">gluon_parent</td><td style="vertical-align:top;">:</td><td><div>C:\\Users\\Brad Cardello\\Desktop\\Computer Science\\CMPS-183\\web2py-class</div></td></tr><tr><td style="font-weight:bold;vertical-align:top;">is_jython</td><td style="vertical-align:top;">:</td><td><div>False</div></td></tr><tr><td style="font-weight:bold;vertical-align:top;">is_pypy</td><td style="vertical-align:top;">:</td><td><div>False</div></td></tr><tr><td style="font-weight:bold;vertical-align:top;">is_source</td><td style="vertical-align:top;">:</td><td><div>True</div></td></tr><tr><td style="font-weight:bold;vertical-align:top;">local_hosts</td><td style="vertical-align:top;">:</td><td><div><table><tr><td><div>BradCardello-HP</div></td></tr><tr><td><div>10.0.0.12</div></td></tr><tr><td><div>::ffff:127.0.0.1</div></td></tr><tr><td><div>::1</div></td></tr><tr><td><div>fe80::f949:4d03:924e:beff%8</div></td></tr><tr><td><div>169.254.190.255</div></td></tr><tr><td><div>127.0.0.1</div></td></tr></table></div></td></tr><tr><td style="font-weight:bold;vertical-align:top;">web2py_version</td><td style="vertical-align:top;">:</td><td><div>2.12.3-stable+timestamp.2015.08.18.19.14.07</div></td></tr></table></div></td></tr><tr><td style="font-weight:bold;vertical-align:top;">is_https</td><td style="vertical-align:top;">:</td><td><div>False</div></td></tr><tr><td style="font-weight:bold;vertical-align:top;">is_local</td><td style="vertical-align:top;">:</td><td><div>True</div></td></tr><tr><td style="font-weight:bold;vertical-align:top;">is_restful</td><td style="vertical-align:top;">:</td><td><div>False</div></td></tr><tr><td style="font-weight:bold;vertical-align:top;">is_sheduler</td><td style="vertical-align:top;">:</td><td><div>None</div></td></tr><tr><td style="font-weight:bold;vertical-align:top;">is_shell</td><td style="vertical-align:top;">:</td><td><div>None</div></td></tr><tr><td style="font-weight:bold;vertical-align:top;">now</td><td style="vertical-align:top;">:</td><td><div>datetime.datetime(2015, 11, 25, 12, 14, 46, 831000)</div></td></tr><tr><td style="font-weight:bold;vertical-align:top;">raw_args</td><td style="vertical-align:top;">:</td><td><div>a a/a/9gJOPHmZf5</div></td></tr><tr><td style="font-weight:bold;vertical-align:top;">raw_extension</td><td style="vertical-align:top;">:</td><td><div>None</div></td></tr><tr><td style="font-weight:bold;vertical-align:top;">url</td><td style="vertical-align:top;">:</td><td><div>/WebUcscTutor/default/message_user/a a/a/9gJOPHmZf5</div></td></tr><tr><td style="font-weight:bold;vertical-align:top;">utcnow</td><td style="vertical-align:top;">:</td><td><div>datetime.datetime(2015, 11, 25, 20, 14, 46, 831000)</div></td></tr><tr><td style="font-weight:bold;vertical-align:top;">wsgi</td><td style="vertical-align:top;">:</td><td><div>&lt;gluon.main.LazyWSGI object at 0x058EB990&gt;</div></td></tr></table></div>'
tRp70
sS'frames'
p71
(lp72
(dp73
S'file'
p74
S'C:\\Users\\Brad Cardello\\Desktop\\Computer Science\\CMPS-183\\web2py-class\\gluon\\restricted.py'
p75
sS'dump'
p76
(dp77
S'code'
p78
S"'# -*- coding: utf-8 -*-\\n# this file is released ...\\n\\n\\nresponse._vars=response._caller(message_user)\\n'"
p79
sS'layer'
p80
S"r'C:\\Users\\Brad Cardello\\Desktop\\Computer Science\\...\\applications\\WebUcscTutor\\controllers/default.py'"
p81
sS'global compile2'
p82
S'<function compile2>'
p83
sS'ccode'
p84
S'undefined'
p85
ssS'lnum'
p86
I226
sS'lines'
p87
(dp88
I224
S'            ccode = code'
p89
sI225
S'        else:'
p90
sI226
S'            ccode = compile2(code, layer)'
p91
sI227
S'        exec ccode in environment'
p92
sI228
S'    except HTTP:'
p93
sI229
S'        raise'
p94
sI230
S'    except RestrictedError:'
p95
sI221
S"    environment['__name__'] = '__restricted__'"
p96
sI222
S'    try:'
p97
sI223
S'        if isinstance(code, types.CodeType):'
p98
ssS'call'
p99
S"(code='# -*- coding: utf-8 -*-\\n# this file is released ...\\n\\n\\nresponse._vars=response._caller(message_user)\\n', environment={'A': <class 'gluon.html.A'>, 'ANY_OF': <class 'gluon.validators.ANY_OF'>, 'ASSIGNJS': <function ASSIGNJS>, 'AppConfig': <function AppConfig>, 'Auth': <class 'gluon.tools.Auth'>, 'B': <class 'gluon.html.B'>, 'BEAUTIFY': <class 'gluon.html.BEAUTIFY'>, 'BODY': <class 'gluon.html.BODY'>, 'BR': <class 'gluon.html.BR'>, 'BUTTON': <class 'gluon.html.BUTTON'>, ...}, layer=r'C:\\Users\\Brad Cardello\\Desktop\\Computer Science\\...\\applications\\WebUcscTutor\\controllers/default.py')"
p100
sS'func'
p101
S'restricted'
p102
sa(dp103
g74
S'C:\\Users\\Brad Cardello\\Desktop\\Computer Science\\CMPS-183\\web2py-class\\gluon\\restricted.py'
p104
sg76
(dp105
S'builtincompile'
p106
S'<built-in function compile>'
p107
sS'code'
p108
S"'# -*- coding: utf-8 -*-\\n# this file is released ...\\n\\n\\nresponse._vars=response._caller(message_user)\\n'"
p109
sS'code.rstrip'
p110
S'<built-in method rstrip of str object>'
p111
sS').replace'
p112
g85
sS'layer'
p113
S"r'C:\\Users\\Brad Cardello\\Desktop\\Computer Science\\...\\applications\\WebUcscTutor\\controllers/default.py'"
p114
ssg86
I209
sg87
(dp115
I204
S'def compile2(code, layer):'
p116
sI205
S'    """'
p117
sI206
S"    The ``+'\\\\n'`` is necessary else compile fails when code ends in a comment."
p118
sI207
S'    """'
p119
sI208
S''
sI209
S"    return compile(code.rstrip().replace('\\r\\n', '\\n') + '\\n', layer, 'exec')"
p120
sI210
S''
sI211
S''
sI212
S"def restricted(code, environment=None, layer='Unknown'):"
p121
sI213
S'    """'
p122
ssg99
S"(code='# -*- coding: utf-8 -*-\\n# this file is released ...\\n\\n\\nresponse._vars=response._caller(message_user)\\n', layer=r'C:\\Users\\Brad Cardello\\Desktop\\Computer Science\\...\\applications\\WebUcscTutor\\controllers/default.py')"
p123
sg101
S'compile2'
p124
sasS'pyver'
p125
S'Python 2.7.9: C:\\Python27\\python.exe (prefix: C:\\Python27)'
p126
sS'session'
p127
g69
(S's\xa3s\x00\x00<div><table><tr><td style="font-weight:bold;vertical-align:top;">users</td><td style="vertical-align:top;">:</td><td><div><table><tr><td style="font-weight:bold;vertical-align:top;">results</td><td style="vertical-align:top;">:</td><td><div><table><tr><td><div><table><tr><td style="font-weight:bold;vertical-align:top;">Availability</td><td style="vertical-align:top;">:</td><td><div><table><tr><td><div>False</div></td></tr><tr><td><div>True</div></td></tr><tr><td><div>True</div></td></tr><tr><td><div>False</div></td></tr><tr><td><div>False</div></td></tr><tr><td><div>False</div></td></tr><tr><td><div>True</div></td></tr><tr><td><div>True</div></td></tr><tr><td><div>True</div></td></tr><tr><td><div>False</div></td></tr><tr><td><div>True</div></td></tr><tr><td><div>False</div></td></tr><tr><td><div>True</div></td></tr><tr><td><div>False</div></td></tr><tr><td><div>True</div></td></tr><tr><td><div>True</div></td></tr><tr><td><div>True</div></td></tr><tr><td><div>False</div></td></tr><tr><td><div>False</div></td></tr><tr><td><div>True</div></td></tr><tr><td><div>True</div></td></tr></table></div></td></tr><tr><td style="font-weight:bold;vertical-align:top;">FirstName</td><td style="vertical-align:top;">:</td><td><div>Steven</div></td></tr><tr><td style="font-weight:bold;vertical-align:top;">LastName</td><td style="vertical-align:top;">:</td><td><div>Rodriguez</div></td></tr><tr><td style="font-weight:bold;vertical-align:top;">ProfilePic</td><td style="vertical-align:top;">:</td><td><div><table><tr><td style="font-weight:bold;vertical-align:top;">name</td><td style="vertical-align:top;">:</td><td><div>tfss-7ef7c790-f0d3-4cc2-96c4-5375c13e231c-ProfilePic</div></td></tr><tr><td style="font-weight:bold;vertical-align:top;">url</td><td style="vertical-align:top;">:</td><td><div>http://files.parsetfss.com/cbcf9597-cdf7-406b-9414-979ea3189619/tfss-7ef7c790-f0d3-4cc2-96c4-5375c13e231c-ProfilePic</div></td></tr></table></div></td></tr><tr><td style="font-weight:bold;vertical-align:top;">bio</td><td style="vertical-align:top;">:</td><td><div>I am a fourth year Computer Science major. I am available to tutor in courses 5J, 12A, and 11. I have tutored these courses for UCSC in the past.</div></td></tr><tr><td style="font-weight:bold;vertical-align:top;">createdAt</td><td style="vertical-align:top;">:</td><td><div>2015-11-02T19:34:58.965Z</div></td></tr><tr><td style="font-weight:bold;vertical-align:top;">email</td><td style="vertical-align:top;">:</td><td><div>sjrodrig@ucsc.edu</div></td></tr><tr><td style="font-weight:bold;vertical-align:top;">emailVerified</td><td style="vertical-align:top;">:</td><td><div>True</div></td></tr><tr><td style="font-weight:bold;vertical-align:top;">isTutor</td><td style="vertical-align:top;">:</td><td><div>True</div></td></tr><tr><td style="font-weight:bold;vertical-align:top;">objectId</td><td style="vertical-align:top;">:</td><td><div>c3yX3UNqlS</div></td></tr><tr><td style="font-weight:bold;vertical-align:top;">updatedAt</td><td style="vertical-align:top;">:</td><td><div>2015-11-16T18:28:44.482Z</div></td></tr><tr><td style="font-weight:bold;vertical-align:top;">username</td><td style="vertical-align:top;">:</td><td><div>sjrodrig@ucsc.edu</div></td></tr></table></div></td></tr><tr><td><div><table><tr><td style="font-weight:bold;vertical-align:top;">FirstName</td><td style="vertical-align:top;">:</td><td><div>Brad</div></td></tr><tr><td style="font-weight:bold;vertical-align:top;">LastName</td><td style="vertical-align:top;">:</td><td><div>Cardello</div></td></tr><tr><td style="font-weight:bold;vertical-align:top;">ProfilePic</td><td style="vertical-align:top;">:</td><td><div><table><tr><td style="font-weight:bold;vertical-align:top;">name</td><td style="vertical-align:top;">:</td><td><div>tfss-5322d772-b602-4b35-a46a-43cbd19ef74e-ProfilePic</div></td></tr><tr><td style="font-weight:bold;vertical-align:top;">url</td><td style="vertical-align:top;">:</td><td><div>http://files.parsetfss.com/cbcf9597-cdf7-406b-9414-979ea3189619/tfss-5322d772-b602-4b35-a46a-43cbd19ef74e-ProfilePic</div></td></tr></table></div></td></tr><tr><td style="font-weight:bold;vertical-align:top;">bio</td><td style="vertical-align:top;">:</td><td><div>Hi, I&#x27;m Brad! I need help in CMPS 115 because we have a million slides to look at for our quiz, and no way of knowing what&#x27;s important!</div></td></tr><tr><td style="font-weight:bold;vertical-align:top;">createdAt</td><td style="vertical-align:top;">:</td><td><div>2015-11-09T06:13:04.618Z</div></td></tr><tr><td style="font-weight:bold;vertical-align:top;">email</td><td style="vertical-align:top;">:</td><td><div>bcardell@ucsc.edu</div></td></tr><tr><td style="font-weight:bold;vertical-align:top;">emailVerified</td><td style="vertical-align:top;">:</td><td><div>True</div></td></tr><tr><td style="font-weight:bold;vertical-align:top;">isTutor</td><td style="vertical-align:top;">:</td><td><div>False</div></td></tr><tr><td style="font-weight:bold;vertical-align:top;">objectId</td><td style="vertical-align:top;">:</td><td><div>xLIy1U2XRo</div></td></tr><tr><td style="font-weight:bold;vertical-align:top;">updatedAt</td><td style="vertical-align:top;">:</td><td><div>2015-11-14T03:22:39.708Z</div></td></tr><tr><td style="font-weight:bold;vertical-align:top;">username</td><td style="vertical-align:top;">:</td><td><div>bcardell</div></td></tr></table></div></td></tr><tr><td><div><table><tr><td style="font-weight:bold;vertical-align:top;">Availability</td><td style="vertical-align:top;">:</td><td><div><table><tr><td><div>True</div></td></tr><tr><td><div>True</div></td></tr><tr><td><div>True</div></td></tr><tr><td><div>True</div></td></tr><tr><td><div>False</div></td></tr><tr><td><div>True</div></td></tr><tr><td><div>False</div></td></tr><tr><td><div>True</div></td></tr><tr><td><div>False</div></td></tr><tr><td><div>False</div></td></tr><tr><td><div>True</div></td></tr><tr><td><div>False</div></td></tr><tr><td><div>True</div></td></tr><tr><td><div>True</div></td></tr><tr><td><div>True</div></td></tr><tr><td><div>True</div></td></tr><tr><td><div>True</div></td></tr><tr><td><div>True</div></td></tr><tr><td><div>False</div></td></tr><tr><td><div>True</div></td></tr><tr><td><div>True</div></td></tr></table></div></td></tr><tr><td style="font-weight:bold;vertical-align:top;">FirstName</td><td style="vertical-align:top;">:</td><td><div>George</div></td></tr><tr><td style="font-weight:bold;vertical-align:top;">LastName</td><td style="vertical-align:top;">:</td><td><div>Azpeitia</div></td></tr><tr><td style="font-weight:bold;vertical-align:top;">ProfilePic</td><td style="vertical-align:top;">:</td><td><div><table><tr><td style="font-weight:bold;vertical-align:top;">name</td><td style="vertical-align:top;">:</td><td><div>tfss-37162d86-c76a-4b3a-ad7e-b5354a04a0c5-ProfilePic</div></td></tr><tr><td style="font-weight:bold;vertical-align:top;">url</td><td style="vertical-align:top;">:</td><td><div>http://files.parsetfss.com/cbcf9597-cdf7-406b-9414-979ea3189619/tfss-37162d86-c76a-4b3a-ad7e-b5354a04a0c5-ProfilePic</div></td></tr></table></div></td></tr><tr><td style="font-weight:bold;vertical-align:top;">bio</td><td style="vertical-align:top;">:</td><td><div>I&#x27;m typing in here to see if my description gets saved.</div></td></tr><tr><td style="font-weight:bold;vertical-align:top;">courses</td><td style="vertical-align:top;">:</td><td><div><table><tr><td style="font-weight:bold;vertical-align:top;">CMPE110</td><td style="vertical-align:top;">:</td><td><div>False</div></td></tr><tr><td style="font-weight:bold;vertical-align:top;">CMPS104</td><td style="vertical-align:top;">:</td><td><div>False</div></td></tr><tr><td style="font-weight:bold;vertical-align:top;">CMPS115</td><td style="vertical-align:top;">:</td><td><div>False</div></td></tr></table></div></td></tr><tr><td style="font-weight:bold;vertical-align:top;">createdAt</td><td style="vertical-align:top;">:</td><td><div>2015-11-09T18:13:27.203Z</div></td></tr><tr><td style="font-weight:bold;vertical-align:top;">email</td><td style="vertical-align:top;">:</td><td><div>gazpeiti@ucsc.edu</div></td></tr><tr><td style="font-weight:bold;vertical-align:top;">emailVerified</td><td style="vertical-align:top;">:</td><td><div>True</div></td></tr><tr><td style="font-weight:bold;vertical-align:top;">isTutor</td><td style="vertical-align:top;">:</td><td><div>True</div></td></tr><tr><td style="font-weight:bold;vertical-align:top;">objectId</td><td style="vertical-align:top;">:</td><td><div>2kXT5Ft6tC</div></td></tr><tr><td style="font-weight:bold;vertical-align:top;">updatedAt</td><td style="vertical-align:top;">:</td><td><div>2015-11-25T18:33:47.068Z</div></td></tr><tr><td style="font-weight:bold;vertical-align:top;">username</td><td style="vertical-align:top;">:</td><td><div>george</div></td></tr></table></div></td></tr><tr><td><div><table><tr><td style="font-weight:bold;vertical-align:top;">FirstName</td><td style="vertical-align:top;">:</td><td><div>Cesar Kyle</div></td></tr><tr><td style="font-weight:bold;vertical-align:top;">LastName</td><td style="vertical-align:top;">:</td><td><div>Casil</div></td></tr><tr><td style="font-weight:bold;vertical-align:top;">ProfilePic</td><td style="vertical-align:top;">:</td><td><div><table><tr><td style="font-weight:bold;vertical-align:top;">name</td><td style="vertical-align:top;">:</td><td><div>tfss-a798363d-8dff-40d7-ac68-0e376eacd016-ProfilePic</div></td></tr><tr><td style="font-weight:bold;vertical-align:top;">url</td><td style="vertical-align:top;">:</td><td><div>http://files.parsetfss.com/cbcf9597-cdf7-406b-9414-979ea3189619/tfss-a798363d-8dff-40d7-ac68-0e376eacd016-ProfilePic</div></td></tr></table></div></td></tr><tr><td style="font-weight:bold;vertical-align:top;">bio</td><td style="vertical-align:top;">:</td><td><div>Hi </div></td></tr><tr><td style="font-weight:bold;vertical-align:top;">createdAt</td><td style="vertical-align:top;">:</td><td><div>2015-11-09T18:28:20.460Z</div></td></tr><tr><td style="font-weight:bold;vertical-align:top;">email</td><td style="vertical-align:top;">:</td><td><div>ccasil@ucsc.edu</div></td></tr><tr><td style="font-weight:bold;vertical-align:top;">emailVerified</td><td style="vertical-align:top;">:</td><td><div>True</div></td></tr><tr><td style="font-weight:bold;vertical-align:top;">isTutor</td><td style="vertical-align:top;">:</td><td><div>False</div></td></tr><tr><td style="font-weight:bold;vertical-align:top;">objectId</td><td style="vertical-align:top;">:</td><td><div>NGT1brFbL7</div></td></tr><tr><td style="font-weight:bold;vertical-align:top;">updatedAt</td><td style="vertical-align:top;">:</td><td><div>2015-11-23T02:56:59.240Z</div></td></tr><tr><td style="font-weight:bold;vertical-align:top;">username</td><td style="vertical-align:top;">:</td><td><div>ccasil</div></td></tr></table></div></td></tr><tr><td><div><table><tr><td style="font-weight:bold;vertical-align:top;">FirstName</td><td style="vertical-align:top;">:</td><td><div>sfhsh</div></td></tr><tr><td style="font-weight:bold;vertical-align:top;">LastName</td><td style="vertical-align:top;">:</td><td><div>sfhsfhsh</div></td></tr><tr><td style="font-weight:bold;vertical-align:top;">createdAt</td><td style="vertical-align:top;">:</td><td><div>2015-11-16T22:22:49.912Z</div></td></tr><tr><td style="font-weight:bold;vertical-align:top;">email</td><td style="vertical-align:top;">:</td><td><div>sdfhsfh@ucsc.edu</div></td></tr><tr><td style="font-weight:bold;vertical-align:top;">emailVerified</td><td style="vertical-align:top;">:</td><td><div>False</div></td></tr><tr><td style="font-weight:bold;vertical-align:top;">isTutor</td><td style="vertical-align:top;">:</td><td><div>True</div></td></tr><tr><td style="font-weight:bold;vertical-align:top;">objectId</td><td style="vertical-align:top;">:</td><td><div>OZmVsoeBYw</div></td></tr><tr><td style="font-weight:bold;vertical-align:top;">updatedAt</td><td style="vertical-align:top;">:</td><td><div>2015-11-16T22:22:49.912Z</div></td></tr><tr><td style="font-weight:bold;vertical-align:top;">username</td><td style="vertical-align:top;">:</td><td><div>shfsfhs</div></td></tr></table></div></td></tr><tr><td><div><table><tr><td style="font-weight:bold;vertical-align:top;">Availability</td><td style="vertical-align:top;">:</td><td><div><table><tr><td><div>True</div></td></tr><tr><td><div>True</div></td></tr><tr><td><div>True</div></td></tr><tr><td><div>False</div></td></tr><tr><td><div>True</div></td></tr><tr><td><div>False</div></td></tr><tr><td><div>False</div></td></tr><tr><td><div>False</div></td></tr><tr><td><div>False</div></td></tr><tr><td><div>False</div></td></tr><tr><td><div>False</div></td></tr><tr><td><div>True</div></td></tr><tr><td><div>False</div></td></tr><tr><td><div>True</div></td></tr><tr><td><div>True</div></td></tr><tr><td><div>False</div></td></tr><tr><td><div>True</div></td></tr><tr><td><div>True</div></td></tr><tr><td><div>True</div></td></tr><tr><td><div>False</div></td></tr><tr><td><div>True</div></td></tr></table></div></td></tr><tr><td style="font-weight:bold;vertical-align:top;">FirstName</td><td style="vertical-align:top;">:</td><td><div>Jimmeh</div></td></tr><tr><td style="font-weight:bold;vertical-align:top;">LastName</td><td style="vertical-align:top;">:</td><td><div>Johnson</div></td></tr><tr><td style="font-weight:bold;vertical-align:top;">ProfilePic</td><td style="vertical-align:top;">:</td><td><div><table><tr><td style="font-weight:bold;vertical-align:top;">name</td><td style="vertical-align:top;">:</td><td><div>tfss-50c1826c-2b0d-4464-80a1-f4beaf8e5513-ProfilePic</div></td></tr><tr><td style="font-weight:bold;vertical-align:top;">url</td><td style="vertical-align:top;">:</td><td><div>http://files.parsetfss.com/cbcf9597-cdf7-406b-9414-979ea3189619/tfss-50c1826c-2b0d-4464-80a1-f4beaf8e5513-ProfilePic</div></td></tr></table></div></td></tr><tr><td style="font-weight:bold;vertical-align:top;">bio</td><td style="vertical-align:top;">:</td><td><div>This is a test description: Lorem ipsum dolor sit amet, consectetur adipiscing elit. Morbi nunc ante, congue non rhoncus dignissim, ultrices ut lacus. Pellentesque et efficitur libero. Lorem ipsum dolor sit amet, consectetur adipiscing elit. Vivamus et velit tellus. Cras at mi a turpis commodo efficitur. Sed egestas vestibulum porta. Praesent hendrerit sollicitudin massa at elementum. Suspendisse hendrerit lobortis mi non laoreet.\n\nDonec tincidunt erat libero, ac tempor diam mattis at. Morbi in condimentum elit, nec hendrerit enim. Praesent interdum diam a hendrerit euismod. Nam varius rutrum metus in tincidunt. Nulla tempus lectus lectus, quis cursus arcu mattis congue. Sed ligula purus, sagittis pulvinar cursus a, aliquet eget neque. Duis elementum mauris justo, ut ultrices sem convallis eget. In vitae convallis justo. Morbi velit nisi, dictum eget tincidunt nec, hendrerit vel justo. Praesent congue, dolor varius mollis sagittis, risus sapien sollicitudin justo, convallis hendrerit mi est vel tortor. Integer eu tempus eros, ac vulputate est.\n\nSed vel vestibulum eros, sit amet consequat dui. Quisque nunc sem, mollis quis pulvinar sit amet, iaculis vitae dui. Nam at congue odio. Vivamus tempus justo eget est commodo sollicitudin. Nullam risus eros, dictum id purus placerat, fermentum luctus mi. Etiam non nulla id ligula sagittis maximus id sed nibh. Nunc malesuada bibendum lacus sed gravida. Nunc a condimentum ex.\n\nSed nunc dui, sagittis sed scelerisque in, sagittis sed orci. Cras elementum, est a euismod placerat, nisi erat aliquet ipsum, at facilisis justo justo suscipit erat. Cum sociis natoque penatibus et magnis dis parturient montes, nascetur ridiculus mus. Aenean ac elit bibendum, egestas ante a, fringilla nisl. Curabitur augue urna, hendrerit in aliquet a, fermentum non nisl. In interdum nisi a sem interdum dignissim. Donec turpis augue, luctus sit amet feugiat ut, vestibulum vitae enim.\n\nNulla facilisi. Nulla venenatis nisl a blandit cursus. Donec blandit in nibh vel feugiat. Vestibulum facilisis consectetur consequat. Suspendisse porttitor nulla dictum lorem mollis faucibus et volutpat risus. Curabitur sapien velit, eleifend ac libero nec, vulputate elementum enim. Curabitur efficitur eleifend efficitur. Donec pharetra sollicitudin leo, non faucibus mi volutpat et.</div></td></tr><tr><td style="font-weight:bold;vertical-align:top;">createdAt</td><td style="vertical-align:top;">:</td><td><div>2015-11-18T12:15:14.868Z</div></td></tr><tr><td style="font-weight:bold;vertical-align:top;">email</td><td style="vertical-align:top;">:</td><td><div>testg@ucsc.edu</div></td></tr><tr><td style="font-weight:bold;vertical-align:top;">emailVerified</td><td style="vertical-align:top;">:</td><td><div>False</div></td></tr><tr><td style="font-weight:bold;vertical-align:top;">isTutor</td><td style="vertical-align:top;">:</td><td><div>True</div></td></tr><tr><td style="font-weight:bold;vertical-align:top;">objectId</td><td style="vertical-align:top;">:</td><td><div>MW1UAYc2zb</div></td></tr><tr><td style="font-weight:bold;vertical-align:top;">updatedAt</td><td style="vertical-align:top;">:</td><td><div>2015-11-18T22:03:33.126Z</div></td></tr><tr><td style="font-weight:bold;vertical-align:top;">username</td><td style="vertical-align:top;">:</td><td><div>test</div></td></tr></table></div></td></tr><tr><td><div><table><tr><td style="font-weight:bold;vertical-align:top;">Availability</td><td style="vertical-align:top;">:</td><td><div><table><tr><td><div>True</div></td></tr><tr><td><div>True</div></td></tr><tr><td><div>True</div></td></tr><tr><td><div>False</div></td></tr><tr><td><div>True</div></td></tr><tr><td><div>True</div></td></tr><tr><td><div>True</div></td></tr><tr><td><div>False</div></td></tr><tr><td><div>False</div></td></tr><tr><td><div>False</div></td></tr><tr><td><div>True</div></td></tr><tr><td><div>False</div></td></tr><tr><td><div>False</div></td></tr><tr><td><div>False</div></td></tr><tr><td><div>True</div></td></tr><tr><td><div>True</div></td></tr><tr><td><div>True</div></td></tr><tr><td><div>False</div></td></tr><tr><td><div>True</div></td></tr><tr><td><div>True</div></td></tr><tr><td><div>True</div></td></tr></table></div></td></tr><tr><td style="font-weight:bold;vertical-align:top;">FirstName</td><td style="vertical-align:top;">:</td><td><div>jim</div></td></tr><tr><td style="font-weight:bold;vertical-align:top;">LastName</td><td style="vertical-align:top;">:</td><td><div>jimbob</div></td></tr><tr><td style="font-weight:bold;vertical-align:top;">ProfilePic</td><td style="vertical-align:top;">:</td><td><div><table><tr><td style="font-weight:bold;vertical-align:top;">name</td><td style="vertical-align:top;">:</td><td><div>tfss-f2349074-b39e-4c99-89fa-38dccfbb6072-ProfilePic</div></td></tr><tr><td style="font-weight:bold;vertical-align:top;">url</td><td style="vertical-align:top;">:</td><td><div>http://files.parsetfss.com/cbcf9597-cdf7-406b-9414-979ea3189619/tfss-f2349074-b39e-4c99-89fa-38dccfbb6072-ProfilePic</div></td></tr></table></div></td></tr><tr><td style="font-weight:bold;vertical-align:top;">createdAt</td><td style="vertical-align:top;">:</td><td><div>2015-11-18T13:58:24.302Z</div></td></tr><tr><td style="font-weight:bold;vertical-align:top;">email</td><td style="vertical-align:top;">:</td><td><div>jim@ucsc.edu</div></td></tr><tr><td style="font-weight:bold;vertical-align:top;">emailVerified</td><td style="vertical-align:top;">:</td><td><div>False</div></td></tr><tr><td style="font-weight:bold;vertical-align:top;">isTutor</td><td style="vertical-align:top;">:</td><td><div>False</div></td></tr><tr><td style="font-weight:bold;vertical-align:top;">objectId</td><td style="vertical-align:top;">:</td><td><div>pUK4NRLlI3</div></td></tr><tr><td style="font-weight:bold;vertical-align:top;">updatedAt</td><td style="vertical-align:top;">:</td><td><div>2015-11-18T21:25:26.032Z</div></td></tr><tr><td style="font-weight:bold;vertical-align:top;">username</td><td style="vertical-align:top;">:</td><td><div>jimmy</div></td></tr></table></div></td></tr><tr><td><div><table><tr><td style="font-weight:bold;vertical-align:top;">Availability</td><td style="vertical-align:top;">:</td><td><div><table><tr><td><div>True</div></td></tr><tr><td><div>False</div></td></tr><tr><td><div>True</div></td></tr><tr><td><div>False</div></td></tr><tr><td><div>False</div></td></tr><tr><td><div>False</div></td></tr><tr><td><div>False</div></td></tr><tr><td><div>False</div></td></tr><tr><td><div>False</div></td></tr><tr><td><div>False</div></td></tr><tr><td><div>False</div></td></tr><tr><td><div>False</div></td></tr><tr><td><div>False</div></td></tr><tr><td><div>False</div></td></tr><tr><td><div>False</div></td></tr><tr><td><div>False</div></td></tr><tr><td><div>False</div></td></tr><tr><td><div>False</div></td></tr><tr><td><div>False</div></td></tr><tr><td><div>False</div></td></tr><tr><td><div>False</div></td></tr></table></div></td></tr><tr><td style="font-weight:bold;vertical-align:top;">FirstName</td><td style="vertical-align:top;">:</td><td><div>a</div></td></tr><tr><td style="font-weight:bold;vertical-align:top;">LastName</td><td style="vertical-align:top;">:</td><td><div>a</div></td></tr><tr><td style="font-weight:bold;vertical-align:top;">bio</td><td style="vertical-align:top;">:</td><td><div>hello I am a</div></td></tr><tr><td style="font-weight:bold;vertical-align:top;">createdAt</td><td style="vertical-align:top;">:</td><td><div>2015-11-19T00:12:52.877Z</div></td></tr><tr><td style="font-weight:bold;vertical-align:top;">email</td><td style="vertical-align:top;">:</td><td><div>a@ucsc.edu</div></td></tr><tr><td style="font-weight:bold;vertical-align:top;">emailVerified</td><td style="vertical-align:top;">:</td><td><div>False</div></td></tr><tr><td style="font-weight:bold;vertical-align:top;">isTutor</td><td style="vertical-align:top;">:</td><td><div>True</div></td></tr><tr><td style="font-weight:bold;vertical-align:top;">objectId</td><td style="vertical-align:top;">:</td><td><div>9gJOPHmZf5</div></td></tr><tr><td style="font-weight:bold;vertical-align:top;">updatedAt</td><td style="vertical-align:top;">:</td><td><div>2015-11-22T09:20:20.948Z</div></td></tr><tr><td style="font-weight:bold;vertical-align:top;">username</td><td style="vertical-align:top;">:</td><td><div>a</div></td></tr></table></div></td></tr><tr><td><div><table><tr><td style="font-weight:bold;vertical-align:top;">FirstName</td><td style="vertical-align:top;">:</td><td><div>dad</div></td></tr><tr><td style="font-weight:bold;vertical-align:top;">LastName</td><td style="vertical-align:top;">:</td><td><div>dad</div></td></tr><tr><td style="font-weight:bold;vertical-align:top;">MyContacts</td><td style="vertical-align:top;">:</td><td><div><table><tr><td><div>c3yX3UNqlS</div></td></tr><tr><td><div>2kXT5Ft6tC</div></td></tr></table></div></td></tr><tr><td style="font-weight:bold;vertical-align:top;">createdAt</td><td style="vertical-align:top;">:</td><td><div>2015-11-20T03:45:02.624Z</div></td></tr><tr><td style="font-weight:bold;vertical-align:top;">email</td><td style="vertical-align:top;">:</td><td><div>dad@ucsc.edu</div></td></tr><tr><td style="font-weight:bold;vertical-align:top;">emailVerified</td><td style="vertical-align:top;">:</td><td><div>False</div></td></tr><tr><td style="font-weight:bold;vertical-align:top;">isTutor</td><td style="vertical-align:top;">:</td><td><div>False</div></td></tr><tr><td style="font-weight:bold;vertical-align:top;">objectId</td><td style="vertical-align:top;">:</td><td><div>559XhQ1r9e</div></td></tr><tr><td style="font-weight:bold;vertical-align:top;">updatedAt</td><td style="vertical-align:top;">:</td><td><div>2015-11-20T18:30:15.232Z</div></td></tr><tr><td style="font-weight:bold;vertical-align:top;">username</td><td style="vertical-align:top;">:</td><td><div>dad</div></td></tr></table></div></td></tr><tr><td><div><table><tr><td style="font-weight:bold;vertical-align:top;">FirstName</td><td style="vertical-align:top;">:</td><td><div>mom</div></td></tr><tr><td style="font-weight:bold;vertical-align:top;">LastName</td><td style="vertical-align:top;">:</td><td><div>mom</div></td></tr><tr><td style="font-weight:bold;vertical-align:top;">MyContacts</td><td style="vertical-align:top;">:</td><td><div><table><tr><td><div>c3yX3UNqlS</div></td></tr></table></div></td></tr><tr><td style="font-weight:bold;vertical-align:top;">createdAt</td><td style="vertical-align:top;">:</td><td><div>2015-11-20T19:00:37.661Z</div></td></tr><tr><td style="font-weight:bold;vertical-align:top;">email</td><td style="vertical-align:top;">:</td><td><div>mon@ucsc.edu</div></td></tr><tr><td style="font-weight:bold;vertical-align:top;">emailVerified</td><td style="vertical-align:top;">:</td><td><div>False</div></td></tr><tr><td style="font-weight:bold;vertical-align:top;">isTutor</td><td style="vertical-align:top;">:</td><td><div>False</div></td></tr><tr><td style="font-weight:bold;vertical-align:top;">objectId</td><td style="vertical-align:top;">:</td><td><div>tw18reYrGt</div></td></tr><tr><td style="font-weight:bold;vertical-align:top;">updatedAt</td><td style="vertical-align:top;">:</td><td><div>2015-11-20T20:33:07.417Z</div></td></tr><tr><td style="font-weight:bold;vertical-align:top;">username</td><td style="vertical-align:top;">:</td><td><div>mom</div></td></tr></table></div></td></tr><tr><td><div><table><tr><td style="font-weight:bold;vertical-align:top;">FirstName</td><td style="vertical-align:top;">:</td><td><div>b</div></td></tr><tr><td style="font-weight:bold;vertical-align:top;">LastName</td><td style="vertical-align:top;">:</td><td><div>b</div></td></tr><tr><td style="font-weight:bold;vertical-align:top;">createdAt</td><td style="vertical-align:top;">:</td><td><div>2015-11-20T21:09:32.945Z</div></td></tr><tr><td style="font-weight:bold;vertical-align:top;">email</td><td style="vertical-align:top;">:</td><td><div>b@ucsc.edu</div></td></tr><tr><td style="font-weight:bold;vertical-align:top;">emailVerified</td><td style="vertical-align:top;">:</td><td><div>False</div></td></tr><tr><td style="font-weight:bold;vertical-align:top;">isTutor</td><td style="vertical-align:top;">:</td><td><div>True</div></td></tr><tr><td style="font-weight:bold;vertical-align:top;">objectId</td><td style="vertical-align:top;">:</td><td><div>xr83bSfaRB</div></td></tr><tr><td style="font-weight:bold;vertical-align:top;">updatedAt</td><td style="vertical-align:top;">:</td><td><div>2015-11-20T21:09:32.945Z</div></td></tr><tr><td style="font-weight:bold;vertical-align:top;">username</td><td style="vertical-align:top;">:</td><td><div>b</div></td></tr></table></div></td></tr><tr><td><div><table><tr><td style="font-weight:bold;vertical-align:top;">Availability</td><td style="vertical-align:top;">:</td><td><div><table><tr><td><div>False</div></td></tr><tr><td><div>False</div></td></tr><tr><td><div>False</div></td></tr><tr><td><div>False</div></td></tr><tr><td><div>False</div></td></tr><tr><td><div>False</div></td></tr><tr><td><div>False</div></td></tr><tr><td><div>False</div></td></tr><tr><td><div>False</div></td></tr><tr><td><div>True</div></td></tr><tr><td><div>False</div></td></tr><tr><td><div>True</div></td></tr><tr><td><div>False</div></td></tr><tr><td><div>False</div></td></tr><tr><td><div>False</div></td></tr><tr><td><div>False</div></td></tr><tr><td><div>True</div></td></tr><tr><td><div>False</div></td></tr><tr><td><div>True</div></td></tr><tr><td><div>False</div></td></tr><tr><td><div>False</div></td></tr></table></div></td></tr><tr><td style="font-weight:bold;vertical-align:top;">FirstName</td><td style="vertical-align:top;">:</td><td><div>Shayan</div></td></tr><tr><td style="font-weight:bold;vertical-align:top;">LastName</td><td style="vertical-align:top;">:</td><td><div>Farmani</div></td></tr><tr><td style="font-weight:bold;vertical-align:top;">ProfilePic</td><td style="vertical-align:top;">:</td><td><div><table><tr><td style="font-weight:bold;vertical-align:top;">name</td><td style="vertical-align:top;">:</td><td><div>tfss-0b3ecfdd-30b0-42c7-adce-0a68931f422a-ProfilePic</div></td></tr><tr><td style="font-weight:bold;vertical-align:top;">url</td><td style="vertical-align:top;">:</td><td><div>http://files.parsetfss.com/cbcf9597-cdf7-406b-9414-979ea3189619/tfss-0b3ecfdd-30b0-42c7-adce-0a68931f422a-ProfilePic</div></td></tr></table></div></td></tr><tr><td style="font-weight:bold;vertical-align:top;">bio</td><td style="vertical-align:top;">:</td><td><div>I can tutor any cmps class except for cmps 115. That class is ridik!</div></td></tr><tr><td style="font-weight:bold;vertical-align:top;">createdAt</td><td style="vertical-align:top;">:</td><td><div>2015-11-25T01:38:27.810Z</div></td></tr><tr><td style="font-weight:bold;vertical-align:top;">email</td><td style="vertical-align:top;">:</td><td><div>sfarmani@ucsc.edu</div></td></tr><tr><td style="font-weight:bold;vertical-align:top;">emailVerified</td><td style="vertical-align:top;">:</td><td><div>True</div></td></tr><tr><td style="font-weight:bold;vertical-align:top;">isTutor</td><td style="vertical-align:top;">:</td><td><div>True</div></td></tr><tr><td style="font-weight:bold;vertical-align:top;">objectId</td><td style="vertical-align:top;">:</td><td><div>KenYQEFyBR</div></td></tr><tr><td style="font-weight:bold;vertical-align:top;">updatedAt</td><td style="vertical-align:top;">:</td><td><div>2015-11-25T01:44:29.701Z</div></td></tr><tr><td style="font-weight:bold;vertical-align:top;">username</td><td style="vertical-align:top;">:</td><td><div>sfarmani</div></td></tr></table></div></td></tr></table></div></td></tr></table></div></td></tr></table></div>'
tRp128
sS'etype'
p129
S"<type 'exceptions.SyntaxError'>"
p130
sS'date'
p131
S'Wed Nov 25 12:14:46 2015'
p132
sS'response'
p133
g69
(S's\xeb\x1e\x00\x00<div><table><tr><td style="font-weight:bold;vertical-align:top;">body</td><td style="vertical-align:top;">:</td><td><div>&lt;cStringIO.StringO object at 0x05A743A0&gt;</div></td></tr><tr><td style="font-weight:bold;vertical-align:top;">cookies</td><td style="vertical-align:top;">:</td><td><div><table><tr><td style="font-weight:bold;vertical-align:top;">session_id_webucsctutor</td><td style="vertical-align:top;">:</td><td><div>127.0.0.1-81969716-1308-443e-9b6f-a74763cb421d<table><tr><td style="font-weight:bold;vertical-align:top;">comment</td><td style="vertical-align:top;">:</td><td><div></div></td></tr><tr><td style="font-weight:bold;vertical-align:top;">domain</td><td style="vertical-align:top;">:</td><td><div></div></td></tr><tr><td style="font-weight:bold;vertical-align:top;">expires</td><td style="vertical-align:top;">:</td><td><div></div></td></tr><tr><td style="font-weight:bold;vertical-align:top;">httponly</td><td style="vertical-align:top;">:</td><td><div></div></td></tr><tr><td style="font-weight:bold;vertical-align:top;">max-age</td><td style="vertical-align:top;">:</td><td><div></div></td></tr><tr><td style="font-weight:bold;vertical-align:top;">path</td><td style="vertical-align:top;">:</td><td><div>/</div></td></tr><tr><td style="font-weight:bold;vertical-align:top;">secure</td><td style="vertical-align:top;">:</td><td><div></div></td></tr><tr><td style="font-weight:bold;vertical-align:top;">version</td><td style="vertical-align:top;">:</td><td><div></div></td></tr></table></div></td></tr></table></div></td></tr><tr><td style="font-weight:bold;vertical-align:top;">delimiters</td><td style="vertical-align:top;">:</td><td><div><table><tr><td><div>{{</div></td></tr><tr><td><div>}}</div></td></tr></table></div></td></tr><tr><td style="font-weight:bold;vertical-align:top;">files</td><td style="vertical-align:top;">:</td><td><div><table></table></div></td></tr><tr><td style="font-weight:bold;vertical-align:top;">flash</td><td style="vertical-align:top;">:</td><td><div></div></td></tr><tr><td style="font-weight:bold;vertical-align:top;">form_label_separator</td><td style="vertical-align:top;">:</td><td><div></div></td></tr><tr><td style="font-weight:bold;vertical-align:top;">formstyle</td><td style="vertical-align:top;">:</td><td><div>bootstrap3_inline</div></td></tr><tr><td style="font-weight:bold;vertical-align:top;">generic_patterns</td><td style="vertical-align:top;">:</td><td><div><table><tr><td><div>*</div></td></tr></table></div></td></tr><tr><td style="font-weight:bold;vertical-align:top;">google_analytics_id</td><td style="vertical-align:top;">:</td><td><div>None</div></td></tr><tr><td style="font-weight:bold;vertical-align:top;">headers</td><td style="vertical-align:top;">:</td><td><div><table><tr><td style="font-weight:bold;vertical-align:top;">X-Powered-By</td><td style="vertical-align:top;">:</td><td><div>web2py</div></td></tr></table></div></td></tr><tr><td style="font-weight:bold;vertical-align:top;">logo</td><td style="vertical-align:top;">:</td><td><div><a class="navbar-brand" id="web2py-logo" style="margin: -5px;"><img src="http://oi66.tinypic.com/2pzmdnb.jpg" /></a></div></td></tr><tr><td style="font-weight:bold;vertical-align:top;">menu</td><td style="vertical-align:top;">:</td><td><div><table><tr><td><div><table><tr><td><div>Home</div></td></tr><tr><td><div>False</div></td></tr><tr><td><div>/WebUcscTutor/default/index</div></td></tr><tr><td><div><table></table></div></td></tr></table></div></td></tr><tr><td><div><table><tr><td><div>My Sites</div></td></tr><tr><td><div>False</div></td></tr><tr><td><div>/admin/default/site</div></td></tr></table></div></td></tr></table></div></td></tr><tr><td style="font-weight:bold;vertical-align:top;">meta</td><td style="vertical-align:top;">:</td><td><div><table><tr><td style="font-weight:bold;vertical-align:top;">author</td><td style="vertical-align:top;">:</td><td><div>Your Name &lt;you@example.com&gt;</div></td></tr><tr><td style="font-weight:bold;vertical-align:top;">description</td><td style="vertical-align:top;">:</td><td><div>a cool new app</div></td></tr><tr><td style="font-weight:bold;vertical-align:top;">generator</td><td style="vertical-align:top;">:</td><td><div>Web2py Web Framework</div></td></tr><tr><td style="font-weight:bold;vertical-align:top;">keywords</td><td style="vertical-align:top;">:</td><td><div>web2py, python, framework</div></td></tr></table></div></td></tr><tr><td style="font-weight:bold;vertical-align:top;">models_to_run</td><td style="vertical-align:top;">:</td><td><div><table><tr><td><div>^\\w+\\.py$</div></td></tr><tr><td><div>^default/\\w+\\.py$</div></td></tr><tr><td><div>^default/message_user/\\w+\\.py$</div></td></tr></table></div></td></tr><tr><td style="font-weight:bold;vertical-align:top;">postprocessing</td><td style="vertical-align:top;">:</td><td><div><table></table></div></td></tr><tr><td style="font-weight:bold;vertical-align:top;">session_client</td><td style="vertical-align:top;">:</td><td><div>127.0.0.1</div></td></tr><tr><td style="font-weight:bold;vertical-align:top;">session_cookie_compression_level</td><td style="vertical-align:top;">:</td><td><div>None</div></td></tr><tr><td style="font-weight:bold;vertical-align:top;">session_cookie_expires</td><td style="vertical-align:top;">:</td><td><div>None</div></td></tr><tr><td style="font-weight:bold;vertical-align:top;">session_cookie_key</td><td style="vertical-align:top;">:</td><td><div>None</div></td></tr><tr><td style="font-weight:bold;vertical-align:top;">session_data_name</td><td style="vertical-align:top;">:</td><td><div>session_data_webucsctutor</div></td></tr><tr><td style="font-weight:bold;vertical-align:top;">session_file</td><td style="vertical-align:top;">:</td><td><div>&lt;open file &#x27;C:\\\\Users\\\\Brad Cardello\\\\Desktop\\\\Computer Science\\\\CMPS-183\\\\web2py-class\\\\applications\\\\WebUcscTutor\\\\sessions\\\\1e1\\\\0be\\\\127.0.0.1-81969716-1308-443e-9b6f-a74763cb421d&#x27;, mode &#x27;rb+&#x27; at 0x05A59650&gt;</div></td></tr><tr><td style="font-weight:bold;vertical-align:top;">session_filename</td><td style="vertical-align:top;">:</td><td><div>C:\\Users\\Brad Cardello\\Desktop\\Computer Science\\CMPS-183\\web2py-class\\applications\\WebUcscTutor\\sessions\\127.0.0.1-81969716-1308-443e-9b6f-a74763cb421d</div></td></tr><tr><td style="font-weight:bold;vertical-align:top;">session_hash</td><td style="vertical-align:top;">:</td><td><div>4ff60569ed2f62e1b212b2ebf03f8eff</div></td></tr><tr><td style="font-weight:bold;vertical-align:top;">session_id</td><td style="vertical-align:top;">:</td><td><div>127.0.0.1-81969716-1308-443e-9b6f-a74763cb421d</div></td></tr><tr><td style="font-weight:bold;vertical-align:top;">session_id_name</td><td style="vertical-align:top;">:</td><td><div>session_id_webucsctutor</div></td></tr><tr><td style="font-weight:bold;vertical-align:top;">session_locked</td><td style="vertical-align:top;">:</td><td><div>True</div></td></tr><tr><td style="font-weight:bold;vertical-align:top;">session_masterapp</td><td style="vertical-align:top;">:</td><td><div>WebUcscTutor</div></td></tr><tr><td style="font-weight:bold;vertical-align:top;">session_new</td><td style="vertical-align:top;">:</td><td><div>False</div></td></tr><tr><td style="font-weight:bold;vertical-align:top;">session_storage_type</td><td style="vertical-align:top;">:</td><td><div>file</div></td></tr><tr><td style="font-weight:bold;vertical-align:top;">status</td><td style="vertical-align:top;">:</td><td><div>200</div></td></tr><tr><td style="font-weight:bold;vertical-align:top;">subtitle</td><td style="vertical-align:top;">:</td><td><div></div></td></tr><tr><td style="font-weight:bold;vertical-align:top;">title</td><td style="vertical-align:top;">:</td><td><div>Webucsctutor</div></td></tr><tr><td style="font-weight:bold;vertical-align:top;">view</td><td style="vertical-align:top;">:</td><td><div>default/message_user.html</div></td></tr></table></div>'
tRp134
sS'locals'
p135
(dp136
g4
S"r'C:\\Users\\Brad Cardello\\Desktop\\Computer Science\\...\\applications\\WebUcscTutor\\controllers/default.py'"
p137
sg6
S"'# -*- coding: utf-8 -*-\\n# this file is released ...\\n\\n\\nresponse._vars=response._caller(message_user)\\n'"
p138
sssS'traceback'
p139
S'Traceback (most recent call last):\n  File "C:\\Users\\Brad Cardello\\Desktop\\Computer Science\\CMPS-183\\web2py-class\\gluon\\restricted.py", line 226, in restricted\n    ccode = compile2(code, layer)\n  File "C:\\Users\\Brad Cardello\\Desktop\\Computer Science\\CMPS-183\\web2py-class\\gluon\\restricted.py", line 209, in compile2\n    return compile(code.rstrip().replace(\'\\r\\n\', \'\\n\') + \'\\n\', layer, \'exec\')\n  File "C:\\Users\\Brad Cardello\\Desktop\\Computer Science\\CMPS-183\\web2py-class\\applications\\WebUcscTutor\\controllers/default.py", line 62\n    curr_user_id = request.vars.0\n                                ^\nSyntaxError: invalid syntax\n'
p140
s.