(dp1
S'output'
p2
S"<type 'exceptions.TypeError'> expected string or buffer"
p3
sS'layer'
p4
S'C:\\Users\\Brad Cardello\\Desktop\\Computer Science\\CMPS-183\\web2py-class\\applications\\WebUcscTutor\\controllers/default.py'
p5
sS'code'
p6
S'# -*- coding: utf-8 -*-\n# this file is released under public domain and you can use without limitations\n\nimport json\nimport httplib\nimport re\n\nappId = "sm3IJPOksqi4vIIN99wmppWnGWFZ0lvsVLNQ9VuO"\napiKey = "4udDwLuCkvJLR09ypSp1xsgKKVwBDmncRSRBd24K"\n\n\ndef get_info(strng):\n    if strng == "get users":\n        connection = httplib.HTTPSConnection(\'api.parse.com\', 443)\n        connection.connect()\n        connection.request(\'GET\', \'/1/users\', \'\', {\n               "X-Parse-Application-Id": appId,\n               "X-Parse-REST-API-Key": apiKey\n        })\n        return json.loads(connection.getresponse().read())\n    elif strng == "get messages":\n        connection = httplib.HTTPSConnection(\'api.parse.com\', 443)\n        connection.connect()\n        connection.request(\'GET\', \'/1/classes/ParseMessage\', \'\', {\n               "X-Parse-Application-Id": appId,\n               "X-Parse-REST-API-Key": apiKey\n        })\n        # print json.loads(connection.getresponse().read())\n        return json.loads(connection.getresponse().read())\n\n\ndef index():\n    return dict()\n\n\ndef name_list():\n    users = get_info("get users")\n    session.users = users\n    return dict(users=users)\n\n\ndef editprof():\n    return dict()\n\n\ndef messaging():\n    users = get_info("get users")\n    session.users = users\n    return dict(users=users)\n\n\ndef message_user():\n    title = request.args(1)\n\n    # replace non-alphanumeric characters from args with spaces\n    tutor_name = re.sub(\'[^0-9a-zA-Z]+\', \' \', title)\n\n    users = get_info("get users")\n    session.users = users\n\n    messages = get_info("get messages")\n    # session.messages = messages\n    return dict(tutor_name=tutor_name, users=users, messages=messages)\n\n\n\nresponse._vars=response._caller(message_user)\n'
p7
sS'snapshot'
p8
(dp9
sS'traceback'
p10
S'Traceback (most recent call last):\n  File "C:\\Users\\Brad Cardello\\Desktop\\Computer Science\\CMPS-183\\web2py-class\\gluon\\restricted.py", line 227, in restricted\n    exec ccode in environment\n  File "C:\\Users\\Brad Cardello\\Desktop\\Computer Science\\CMPS-183\\web2py-class\\applications\\WebUcscTutor\\controllers/default.py", line 67, in <module>\n  File "C:\\Users\\Brad Cardello\\Desktop\\Computer Science\\CMPS-183\\web2py-class\\gluon\\globals.py", line 412, in <lambda>\n    self._caller = lambda f: f()\n  File "C:\\Users\\Brad Cardello\\Desktop\\Computer Science\\CMPS-183\\web2py-class\\applications\\WebUcscTutor\\controllers/default.py", line 56, in message_user\n    tutor_name = re.sub(\'[^0-9a-zA-Z]+\', \' \', title)\n  File "C:\\Python27\\lib\\re.py", line 155, in sub\n    return _compile(pattern, flags).sub(repl, string, count)\nTypeError: expected string or buffer\n'
p11
s.