(dp1
S'output'
p2
S"<type 'exceptions.ValueError'> dictionary update sequence element #0 has length 1; 2 is required"
p3
sS'layer'
p4
S'C:\\Users\\Brad Cardello\\Desktop\\Computer Science\\CMPS-183\\web2py-class\\applications\\WebUcscTutor\\controllers/default.py'
p5
sS'code'
p6
S'# -*- coding: utf-8 -*-\n# this file is released under public domain and you can use without limitations\n\nimport json\nimport httplib\n\nappId = "sm3IJPOksqi4vIIN99wmppWnGWFZ0lvsVLNQ9VuO"\napiKey = "4udDwLuCkvJLR09ypSp1xsgKKVwBDmncRSRBd24K"\n\n\ndef get_info(strng):\n    return strng\n    # if strng == "get users":\n    #     connection = httplib.HTTPSConnection(\'api.parse.com\', 443)\n    #     connection.connect()\n    #     connection.request(\'GET\', \'/1/users\', \'\', {\n    #            "X-Parse-Application-Id": appId,\n    #            "X-Parse-REST-API-Key": apiKey\n    #          })\n    #     return json.loads(connection.getresponse().read())\n    # elif strng == "signup as tutor":\n    #     connection = httplib.HTTPSConnection(\'api.parse.com\', 443)\n    #     connection.connect()\n    #     connection.request(\'POST\', \'/1/users\', json.dumps({\n    #            "username": "cooldude6",\n    #            "password": "p_n7!-e8",\n    #            "phone": "415-392-0202"\n    #          }), {\n    #            "X-Parse-Application-Id": appId,\n    #            "X-Parse-REST-API-Key": apiKey,\n    #            "X-Parse-Revocable-Session": "1",\n    #            "Content-Type": "application/json"\n    #          })\n    #     return json.loads(connection.getresponse().read())\n\n\ndef search():\n    users = dict("sfarmani")\n    return dict(users=users)\n\n\ndef index():\n    users = get_info("get users")\n    session.users = users\n    return dict(users=users)\n\n\ndef name_list():\n    users = get_info("get users")\n    session.users = users\n    return dict(users=users)\n\n\nresponse._vars=response._caller(search)\n'
p7
sS'snapshot'
p8
(dp9
sS'traceback'
p10
S'Traceback (most recent call last):\n  File "C:\\Users\\Brad Cardello\\Desktop\\Computer Science\\CMPS-183\\web2py-class\\gluon\\restricted.py", line 227, in restricted\n    exec ccode in environment\n  File "C:\\Users\\Brad Cardello\\Desktop\\Computer Science\\CMPS-183\\web2py-class\\applications\\WebUcscTutor\\controllers/default.py", line 54, in <module>\n  File "C:\\Users\\Brad Cardello\\Desktop\\Computer Science\\CMPS-183\\web2py-class\\gluon\\globals.py", line 412, in <lambda>\n    self._caller = lambda f: f()\n  File "C:\\Users\\Brad Cardello\\Desktop\\Computer Science\\CMPS-183\\web2py-class\\applications\\WebUcscTutor\\controllers/default.py", line 38, in search\n    users = dict("sfarmani")\nValueError: dictionary update sequence element #0 has length 1; 2 is required\n'
p11
s.